target datalayout = "e-m:e-p270:32:32-p271:32:32-p272:64:64-i64:64-i128:128-f80:128-n8:16:32:64-S128"
target triple = "x86_64-pc-linux-gnu"

%"class.cvc5::internal::theory::arith::linear::ErrorInformation" = type <{ i32, [4 x i8], ptr, i32, i8, i8, [2 x i8], %"class.cvc5::internal::BinaryHeap<unsigned int, cvc5::internal::theory::arith::linear::ComparatorPivotRule>::handle", %"class.std::unique_ptr", i32, [4 x i8] }>
%"class.cvc5::internal::BinaryHeap<unsigned int, cvc5::internal::theory::arith::linear::ComparatorPivotRule>::handle" = type { ptr }
%"class.std::unique_ptr" = type { %"struct.std::__uniq_ptr_data" }
%"struct.std::__uniq_ptr_data" = type { %"class.std::__uniq_ptr_impl" }
%"class.std::__uniq_ptr_impl" = type { %"class.std::tuple" }
%"class.std::tuple" = type { %"struct.std::_Tuple_impl" }
%"struct.std::_Tuple_impl" = type { %"struct.std::_Head_base.1" }
%"struct.std::_Head_base.1" = type { ptr }
%"class.cvc5::internal::IntStat" = type { %"class.cvc5::internal::ValueStat" }
%"class.cvc5::internal::ValueStat" = type { ptr }
%"class.cvc5::internal::theory::arith::linear::ErrorSet::Statistics" = type { %"class.cvc5::internal::IntStat", %"class.cvc5::internal::IntStat", %"class.cvc5::internal::IntStat", %"class.cvc5::internal::IntStat", %"class.cvc5::internal::IntStat", %"class.cvc5::internal::IntStat" }
%"class.cvc5::internal::theory::arith::linear::TableauSizes" = type { ptr }
%"class.cvc5::internal::theory::arith::linear::BoundCountingLookup" = type { ptr }
%"class.cvc5::internal::theory::arith::linear::ComparatorPivotRule" = type <{ ptr, i32, [4 x i8] }>
%"class.cvc5::internal::theory::arith::linear::ErrorSet" = type { ptr, %"class.cvc5::internal::theory::arith::linear::ErrorInfoMap", i32, %"class.cvc5::internal::BinaryHeap", %"class.std::vector.16", %"class.std::vector.16", %"class.cvc5::internal::theory::arith::linear::TableauSizes", %"class.cvc5::internal::theory::arith::linear::BoundCountingLookup", %"class.cvc5::internal::theory::arith::linear::ErrorSet::Statistics" }
%"class.cvc5::internal::theory::arith::linear::ErrorInfoMap" = type { %"class.cvc5::internal::DenseMap" }
%"class.cvc5::internal::DenseMap" = type { %"class.std::vector.16", %"class.std::vector.16", %"class.std::vector.21" }
%"class.std::vector.21" = type { %"struct.std::_Vector_base.22" }
%"struct.std::_Vector_base.22" = type { %"struct.std::_Vector_base<cvc5::internal::theory::arith::linear::ErrorInformation, std::allocator<cvc5::internal::theory::arith::linear::ErrorInformation>>::_Vector_impl" }
%"struct.std::_Vector_base<cvc5::internal::theory::arith::linear::ErrorInformation, std::allocator<cvc5::internal::theory::arith::linear::ErrorInformation>>::_Vector_impl" = type { %"struct.std::_Vector_base<cvc5::internal::theory::arith::linear::ErrorInformation, std::allocator<cvc5::internal::theory::arith::linear::ErrorInformation>>::_Vector_impl_data" }
%"struct.std::_Vector_base<cvc5::internal::theory::arith::linear::ErrorInformation, std::allocator<cvc5::internal::theory::arith::linear::ErrorInformation>>::_Vector_impl_data" = type { ptr, ptr, ptr }
%"class.cvc5::internal::BinaryHeap" = type { %"class.std::vector.26", %"class.cvc5::internal::theory::arith::linear::ComparatorPivotRule" }
%"class.std::vector.26" = type { %"struct.std::_Vector_base.27" }
%"struct.std::_Vector_base.27" = type { %"struct.std::_Vector_base<cvc5::internal::BinaryHeap<unsigned int, cvc5::internal::theory::arith::linear::ComparatorPivotRule>::HElement *, std::allocator<cvc5::internal::BinaryHeap<unsigned int, cvc5::internal::theory::arith::linear::ComparatorPivotRule>::HElement *>>::_Vector_impl" }
%"struct.std::_Vector_base<cvc5::internal::BinaryHeap<unsigned int, cvc5::internal::theory::arith::linear::ComparatorPivotRule>::HElement *, std::allocator<cvc5::internal::BinaryHeap<unsigned int, cvc5::internal::theory::arith::linear::ComparatorPivotRule>::HElement *>>::_Vector_impl" = type { %"struct.std::_Vector_base<cvc5::internal::BinaryHeap<unsigned int, cvc5::internal::theory::arith::linear::ComparatorPivotRule>::HElement *, std::allocator<cvc5::internal::BinaryHeap<unsigned int, cvc5::internal::theory::arith::linear::ComparatorPivotRule>::HElement *>>::_Vector_impl_data" }
%"struct.std::_Vector_base<cvc5::internal::BinaryHeap<unsigned int, cvc5::internal::theory::arith::linear::ComparatorPivotRule>::HElement *, std::allocator<cvc5::internal::BinaryHeap<unsigned int, cvc5::internal::theory::arith::linear::ComparatorPivotRule>::HElement *>>::_Vector_impl_data" = type { ptr, ptr, ptr }
%"class.std::vector.16" = type { %"struct.std::_Vector_base.17" }
%"struct.std::_Vector_base.17" = type { %"struct.std::_Vector_base<unsigned int, std::allocator<unsigned int>>::_Vector_impl" }
%"struct.std::_Vector_base<unsigned int, std::allocator<unsigned int>>::_Vector_impl" = type { %"struct.std::_Vector_base<unsigned int, std::allocator<unsigned int>>::_Vector_impl_data" }
%"struct.std::_Vector_base<unsigned int, std::allocator<unsigned int>>::_Vector_impl_data" = type { ptr, ptr, ptr }

; Function Attrs: mustprogress nounwind uwtable
define linkonce_odr hidden noundef nonnull align 8 dereferenceable(44) ptr @_ZNSt6vectorIN4cvc58internal6theory5arith6linear16ErrorInformationESaIS5_EEixEm(ptr noundef nonnull align 8 dereferenceable(24) %0, i64 noundef %1) #5 comdat align 2 {
  %3 = alloca ptr, align 8
  %4 = alloca i64, align 8
  store ptr %0, ptr %3, align 8, !tbaa !209
  store i64 %1, ptr %4, align 8, !tbaa !65
  %5 = load ptr, ptr %3, align 8
  %6 = getelementptr inbounds nuw %"struct.std::_Vector_base.22", ptr %5, i32 0, i32 0
  %7 = getelementptr inbounds nuw %"struct.std::_Vector_base<cvc5::internal::theory::arith::linear::ErrorInformation, std::allocator<cvc5::internal::theory::arith::linear::ErrorInformation>>::_Vector_impl_data", ptr %6, i32 0, i32 0
  %8 = load ptr, ptr %7, align 8, !tbaa !219
  %9 = load i64, ptr %4, align 8, !tbaa !65
  %10 = getelementptr inbounds nuw %"class.cvc5::internal::theory::arith::linear::ErrorInformation", ptr %8, i64 %9
  ret ptr %10
}

; Function Attrs: inlinehint mustprogress nounwind uwtable
define linkonce_odr hidden void @_ZN4cvc58internal6theory5arith6linear16ErrorInformation9setHandleENS0_10BinaryHeapIjNS3_19ComparatorPivotRuleEE6handleE(ptr noundef nonnull align 8 dereferenceable(44) %0, ptr %1) #7 comdat align 2 {
  %3 = alloca %"class.cvc5::internal::BinaryHeap<unsigned int, cvc5::internal::theory::arith::linear::ComparatorPivotRule>::handle", align 8
  %4 = alloca ptr, align 8
  %5 = getelementptr inbounds nuw %"class.cvc5::internal::BinaryHeap<unsigned int, cvc5::internal::theory::arith::linear::ComparatorPivotRule>::handle", ptr %3, i32 0, i32 0
  store ptr %1, ptr %5, align 8
  store ptr %0, ptr %4, align 8, !tbaa !3
  %6 = load ptr, ptr %4, align 8
  %7 = getelementptr inbounds nuw %"class.cvc5::internal::theory::arith::linear::ErrorInformation", ptr %6, i32 0, i32 7
  call void @llvm.memcpy.p0.p0.i64(ptr align 8 %7, ptr align 8 %3, i64 8, i1 false), !tbaa.struct !80
  ret void
}

; Function Attrs: inlinehint mustprogress nounwind uwtable
define linkonce_odr hidden void @_ZN4cvc58internal6theory5arith6linear16ErrorInformation10setInFocusEb(ptr noundef nonnull align 8 dereferenceable(44) %0, i1 noundef zeroext %1) #7 comdat align 2 {
  %3 = alloca ptr, align 8
  %4 = alloca i8, align 1
  store ptr %0, ptr %3, align 8, !tbaa !3
  %5 = zext i1 %1 to i8
  store i8 %5, ptr %4, align 1, !tbaa !32
  %6 = load ptr, ptr %3, align 8
  %7 = load i8, ptr %4, align 1, !tbaa !32, !range !61, !noundef !62
  %8 = trunc i8 %7 to i1
  %9 = getelementptr inbounds nuw %"class.cvc5::internal::theory::arith::linear::ErrorInformation", ptr %6, i32 0, i32 5
  %10 = zext i1 %8 to i8
  store i8 %10, ptr %9, align 1, !tbaa !26
  ret void
}

; Function Attrs: mustprogress nounwind uwtable
define linkonce_odr hidden noundef nonnull align 8 dereferenceable(44) ptr @_ZN4cvc58internal8DenseMapINS0_6theory5arith6linear16ErrorInformationEE3getEj(ptr noundef nonnull align 8 dereferenceable(72) %0, i32 noundef %1) #5 comdat align 2 {
  %3 = alloca ptr, align 8
  %4 = alloca i32, align 4
  store ptr %0, ptr %3, align 8, !tbaa !143
  store i32 %1, ptr %4, align 4, !tbaa !8
  %5 = load ptr, ptr %3, align 8
  %6 = getelementptr inbounds nuw %"class.cvc5::internal::DenseMap", ptr %5, i32 0, i32 2
  %7 = load i32, ptr %4, align 4, !tbaa !8
  %8 = zext i32 %7 to i64
  %9 = call noundef nonnull align 8 dereferenceable(44) ptr @_ZNSt6vectorIN4cvc58internal6theory5arith6linear16ErrorInformationESaIS5_EEixEm(ptr noundef nonnull align 8 dereferenceable(24) %6, i64 noundef %8) #3
  ret ptr %9
}

; Function Attrs: mustprogress uwtable
define hidden void @_ZN4cvc58internal6theory5arith6linear8ErrorSet15focusDownToJustEj(ptr noundef nonnull align 8 dereferenceable(240) %0, i32 noundef %1) #4 align 2 {
  %3 = alloca ptr, align 8
  %4 = alloca i32, align 4
  %5 = alloca ptr, align 8
  %6 = alloca %"class.cvc5::internal::BinaryHeap<unsigned int, cvc5::internal::theory::arith::linear::ComparatorPivotRule>::handle", align 8
  %7 = alloca %"class.cvc5::internal::BinaryHeap<unsigned int, cvc5::internal::theory::arith::linear::ComparatorPivotRule>::handle", align 8
  store ptr %0, ptr %3, align 8, !tbaa !95
  store i32 %1, ptr %4, align 4, !tbaa !8
  %8 = load ptr, ptr %3, align 8
  call void @_ZN4cvc58internal6theory5arith6linear8ErrorSet10clearFocusEv(ptr noundef nonnull align 8 dereferenceable(240) %8)
  call void @llvm.lifetime.start.p0(i64 8, ptr %5) #3
  %9 = getelementptr inbounds nuw %"class.cvc5::internal::theory::arith::linear::ErrorSet", ptr %8, i32 0, i32 1
  %10 = load i32, ptr %4, align 4, !tbaa !8
  %11 = call noundef nonnull align 8 dereferenceable(44) ptr @_ZN4cvc58internal8DenseMapINS0_6theory5arith6linear16ErrorInformationEE3getEj(ptr noundef nonnull align 8 dereferenceable(72) %9, i32 noundef %10)
  store ptr %11, ptr %5, align 8, !tbaa !3
  %12 = load ptr, ptr %5, align 8, !tbaa !3
  call void @_ZN4cvc58internal6theory5arith6linear16ErrorInformation10setInFocusEb(ptr noundef nonnull align 8 dereferenceable(44) %12, i1 noundef zeroext true)
  call void @llvm.lifetime.start.p0(i64 8, ptr %6) #3
  %13 = getelementptr inbounds nuw %"class.cvc5::internal::theory::arith::linear::ErrorSet", ptr %8, i32 0, i32 3
  %14 = call ptr @_ZN4cvc58internal10BinaryHeapIjNS0_6theory5arith6linear19ComparatorPivotRuleEE4pushERKj(ptr noundef nonnull align 8 dereferenceable(40) %13, ptr noundef nonnull align 4 dereferenceable(4) %4)
  %15 = getelementptr inbounds nuw %"class.cvc5::internal::BinaryHeap<unsigned int, cvc5::internal::theory::arith::linear::ComparatorPivotRule>::handle", ptr %6, i32 0, i32 0
  store ptr %14, ptr %15, align 8
  %16 = load ptr, ptr %5, align 8, !tbaa !3
  call void @llvm.memcpy.p0.p0.i64(ptr align 8 %7, ptr align 8 %6, i64 8, i1 false), !tbaa.struct !80
  %17 = getelementptr inbounds nuw %"class.cvc5::internal::BinaryHeap<unsigned int, cvc5::internal::theory::arith::linear::ComparatorPivotRule>::handle", ptr %7, i32 0, i32 0
  %18 = load ptr, ptr %17, align 8
  call void @_ZN4cvc58internal6theory5arith6linear16ErrorInformation9setHandleENS0_10BinaryHeapIjNS3_19ComparatorPivotRuleEE6handleE(ptr noundef nonnull align 8 dereferenceable(44) %16, ptr %18)
  call void @llvm.lifetime.end.p0(i64 8, ptr %6) #3
  call void @llvm.lifetime.end.p0(i64 8, ptr %5) #3
  ret void
}