; Function Attrs: mustprogress uwtable
define hidden void @_ZN4cvc58internal6theory5arith6linear8ErrorSet15focusDownToJustEj(ptr noundef nonnull align 8 dereferenceable(240) %0, i32 noundef %1) local_unnamed_addr #9 align 2 {
  %3 = alloca i32, align 4
  store i32 %1, ptr %3, align 4, !tbaa !3
  tail call void @_ZN4cvc58internal6theory5arith6linear8ErrorSet10clearFocusEv(ptr noundef nonnull align 8 dereferenceable(240) %0)
  %4 = getelementptr inbounds nuw i8, ptr %0, i64 56
  %5 = zext i32 %1 to i64
  %6 = load ptr, ptr %4, align 8, !tbaa !94
  %7 = getelementptr inbounds nuw %"class.cvc5::internal::theory::arith::linear::ErrorInformation", ptr %6, i64 %5
  %8 = getelementptr inbounds nuw i8, ptr %7, i64 21
  store i8 1, ptr %8, align 1, !tbaa !25
  %9 = getelementptr inbounds nuw i8, ptr %0, i64 88
  %10 = call ptr @_ZN4cvc58internal10BinaryHeapIjNS0_6theory5arith6linear19ComparatorPivotRuleEE4pushERKj(ptr noundef nonnull align 8 dereferenceable(40) %9, ptr noundef nonnull align 4 dereferenceable(4) %3)
  %11 = getelementptr inbounds nuw i8, ptr %7, i64 24
  store ptr %10, ptr %11, align 8, !tbaa !28
  ret void
}